; Function Attrs: mustprogress uwtable
define hidden void @_ZN4cvc58internal6theory11TheoryState7addTermENS0_12NodeTemplateILb0EEE(ptr noundef nonnull readonly align 8 captures(none) dereferenceable(160) %0, ptr noundef readonly captures(none) %1) unnamed_addr #3 align 2 personality ptr @__gxx_personality_v0 {
  %3 = alloca %"class.cvc5::internal::NodeTemplate", align 8
  %4 = getelementptr inbounds nuw i8, ptr %0, i64 24
  %5 = load ptr, ptr %4, align 8, !tbaa !10
  %6 = load ptr, ptr %1, align 8, !tbaa !45
  call void @llvm.lifetime.start.p0(i64 8, ptr nonnull %3)
  store ptr %6, ptr %3, align 8, !tbaa !45
  call void @_ZN4cvc58internal6theory2eq14EqualityEngine15addTermInternalENS0_12NodeTemplateILb0EEEb(ptr noundef nonnull align 8 dereferenceable(1784) %5, ptr noundef nonnull %3, i1 noundef zeroext false)
  call void @llvm.lifetime.end.p0(i64 8, ptr nonnull %3)
  ret void
}